target datalayout = "e-m:e-p270:32:32-p271:32:32-p272:64:64-i64:64-i128:128-f80:128-n8:16:32:64-S128"
target triple = "x86_64-pc-linux-gnu"

; Function Attrs: nounwind uwtable
define internal i32 @luaB_xpcall(ptr noundef %0) #0 {
  %2 = alloca ptr, align 8
  %3 = alloca i32, align 4
  store ptr %0, ptr %2, align 8, !tbaa !4
  call void @llvm.lifetime.start.p0(i64 4, ptr %3) #5
  %4 = load ptr, ptr %2, align 8, !tbaa !4
  call void @luaL_checkany(ptr noundef %4, i32 noundef 2)
  %5 = load ptr, ptr %2, align 8, !tbaa !4
  call void @lua_settop(ptr noundef %5, i32 noundef 2)
  %6 = load ptr, ptr %2, align 8, !tbaa !4
  call void @lua_insert(ptr noundef %6, i32 noundef 1)
  %7 = load ptr, ptr %2, align 8, !tbaa !4
  %8 = call i32 @lua_pcall(ptr noundef %7, i32 noundef 0, i32 noundef -1, i32 noundef 1)
  store i32 %8, ptr %3, align 4, !tbaa !12
  %9 = load ptr, ptr %2, align 8, !tbaa !4
  %10 = load i32, ptr %3, align 4, !tbaa !12
  %11 = icmp eq i32 %10, 0
  %12 = zext i1 %11 to i32
  call void @lua_pushboolean(ptr noundef %9, i32 noundef %12)
  %13 = load ptr, ptr %2, align 8, !tbaa !4
  call void @lua_replace(ptr noundef %13, i32 noundef 1)
  %14 = load ptr, ptr %2, align 8, !tbaa !4
  %15 = call i32 @lua_gettop(ptr noundef %14)
  call void @llvm.lifetime.end.p0(i64 4, ptr %3) #5
  ret i32 %15
}