; Function Attrs: nounwind uwtable
define internal i32 @luaB_xpcall(ptr noundef %0) #0 {
  tail call void @luaL_checkany(ptr noundef %0, i32 noundef 2) #8
  tail call void @lua_settop(ptr noundef %0, i32 noundef 2) #8
  tail call void @lua_insert(ptr noundef %0, i32 noundef 1) #8
  %2 = tail call i32 @lua_pcall(ptr noundef %0, i32 noundef 0, i32 noundef -1, i32 noundef 1) #8
  %3 = icmp eq i32 %2, 0
  %4 = zext i1 %3 to i32
  tail call void @lua_pushboolean(ptr noundef %0, i32 noundef %4) #8
  tail call void @lua_replace(ptr noundef %0, i32 noundef 1) #8
  %5 = tail call i32 @lua_gettop(ptr noundef %0) #8
  ret i32 %5
}